target datalayout = "e-m:e-p270:32:32-p271:32:32-p272:64:64-i64:64-i128:128-f80:128-n8:16:32:64-S128"
target triple = "x86_64-pc-linux-gnu"

%struct.AVFormatContext = type { ptr, ptr, ptr, ptr, ptr, i32, i32, ptr, i32, ptr, i32, ptr, ptr, i64, i64, i64, i32, i32, i32, i64, i64, ptr, i32, i32, ptr, i32, i32, i32, i32, ptr, i64, i32, i32, %struct.AVIOInterruptCB, i32, i32, i32, i32, i64, i32, i32, i32, i32, i32, i32, i32, i32, i32, i32, i32, i32, i64, i32, i32, i32, i32, i32, ptr, ptr, ptr, ptr, i32, ptr, ptr, ptr, ptr, i32, ptr, ptr, i64, ptr, ptr, ptr, i64 }
%struct.AVIOInterruptCB = type { ptr, ptr }
%struct.HashContext = type { ptr, ptr, ptr, i32, i32 }

; Function Attrs: nounwind uwtable
define internal void @hash_free(ptr noundef %0) #0 {
  %2 = alloca ptr, align 8
  %3 = alloca ptr, align 8
  %4 = alloca i32, align 4
  %5 = alloca i32, align 4
  store ptr %0, ptr %2, align 8, !tbaa !4
  call void @llvm.lifetime.start.p0(i64 8, ptr %3) #5
  %6 = load ptr, ptr %2, align 8, !tbaa !4
  %7 = getelementptr inbounds nuw %struct.AVFormatContext, ptr %6, i32 0, i32 3
  %8 = load ptr, ptr %7, align 8, !tbaa !11
  store ptr %8, ptr %3, align 8, !tbaa !28
  %9 = load ptr, ptr %3, align 8, !tbaa !28
  %10 = getelementptr inbounds nuw %struct.HashContext, ptr %9, i32 0, i32 1
  %11 = load ptr, ptr %10, align 8, !tbaa !30
  %12 = icmp ne ptr %11, null
  br i1 %12, label %13, label %41

13:                                               ; preds = %1
  call void @llvm.lifetime.start.p0(i64 4, ptr %4) #5
  %14 = load ptr, ptr %3, align 8, !tbaa !28
  %15 = getelementptr inbounds nuw %struct.HashContext, ptr %14, i32 0, i32 3
  %16 = load i32, ptr %15, align 8, !tbaa !33
  %17 = icmp ne i32 %16, 0
  br i1 %17, label %18, label %22

18:                                               ; preds = %13
  %19 = load ptr, ptr %2, align 8, !tbaa !4
  %20 = getelementptr inbounds nuw %struct.AVFormatContext, ptr %19, i32 0, i32 6
  %21 = load i32, ptr %20, align 4, !tbaa !43
  br label %23

22:                                               ; preds = %13
  br label %23

23:                                               ; preds = %22, %18
  %24 = phi i32 [ %21, %18 ], [ 1, %22 ]
  store i32 %24, ptr %4, align 4, !tbaa !44
  call void @llvm.lifetime.start.p0(i64 4, ptr %5) #5
  store i32 0, ptr %5, align 4, !tbaa !44
  br label %25

25:                                               ; preds = %37, %23
  %26 = load i32, ptr %5, align 4, !tbaa !44
  %27 = load i32, ptr %4, align 4, !tbaa !44
  %28 = icmp slt i32 %26, %27
  br i1 %28, label %30, label %29

29:                                               ; preds = %25
  call void @llvm.lifetime.end.p0(i64 4, ptr %5) #5
  br label %40

30:                                               ; preds = %25
  %31 = load ptr, ptr %3, align 8, !tbaa !28
  %32 = getelementptr inbounds nuw %struct.HashContext, ptr %31, i32 0, i32 1
  %33 = load ptr, ptr %32, align 8, !tbaa !30
  %34 = load i32, ptr %5, align 4, !tbaa !44
  %35 = sext i32 %34 to i64
  %36 = getelementptr inbounds ptr, ptr %33, i64 %35
  call void @av_hash_freep(ptr noundef %36)
  br label %37

37:                                               ; preds = %30
  %38 = load i32, ptr %5, align 4, !tbaa !44
  %39 = add nsw i32 %38, 1
  store i32 %39, ptr %5, align 4, !tbaa !44
  br label %25, !llvm.loop !58

40:                                               ; preds = %29
  call void @llvm.lifetime.end.p0(i64 4, ptr %4) #5
  br label %41

41:                                               ; preds = %40, %1
  %42 = load ptr, ptr %3, align 8, !tbaa !28
  %43 = getelementptr inbounds nuw %struct.HashContext, ptr %42, i32 0, i32 1
  call void @av_freep(ptr noundef %43)
  call void @llvm.lifetime.end.p0(i64 8, ptr %3) #5
  ret void
}